; Function Attrs: nounwind uwtable
define noundef zeroext range(i8 0, 2) i8 @l_Lean_RBNode_any___at___private_Lean_Elab_Quotation_Precheck_0__Lean_Elab_Term_Quotation_isSectionVariable___spec__1(ptr noundef %0, ptr noundef %1) local_unnamed_addr #0 {
  br label %3

3:                                                ; preds = %22, %2
  %.015 = phi ptr [ %1, %2 ], [ %19, %22 ]
  %4 = ptrtoint ptr %.015 to i64
  %5 = and i64 %4, 1
  %.not.i = icmp eq i64 %5, 0
  br i1 %.not.i, label %9, label %6

6:                                                ; preds = %3
  %7 = lshr i64 %4, 1
  %8 = trunc i64 %7 to i32
  br label %lean_obj_tag.exit

9:                                                ; preds = %3
  %10 = getelementptr i8, ptr %.015, i64 4
  %.val.i = load i32, ptr %10, align 4
  %11 = lshr i32 %.val.i, 24
  br label %lean_obj_tag.exit

lean_obj_tag.exit:                                ; preds = %6, %9
  %.0.i = phi i32 [ %8, %6 ], [ %11, %9 ]
  %12 = icmp eq i32 %.0.i, 0
  br i1 %12, label %.thread, label %13

13:                                               ; preds = %lean_obj_tag.exit
  %14 = getelementptr inbounds nuw i8, ptr %.015, i64 8
  %15 = load ptr, ptr %14, align 8, !tbaa !9
  %16 = getelementptr inbounds nuw i8, ptr %.015, i64 24
  %17 = load ptr, ptr %16, align 8, !tbaa !9
  %18 = getelementptr inbounds nuw i8, ptr %.015, i64 32
  %19 = load ptr, ptr %18, align 8, !tbaa !9
  %20 = tail call zeroext i8 @lean_expr_eqv(ptr noundef %0, ptr noundef %17) #4
  %21 = icmp eq i8 %20, 0
  br i1 %21, label %22, label %.thread

22:                                               ; preds = %13
  %23 = tail call zeroext i8 @l_Lean_RBNode_any___at___private_Lean_Elab_Quotation_Precheck_0__Lean_Elab_Term_Quotation_isSectionVariable___spec__1(ptr noundef %0, ptr noundef %15)
  %.not = icmp eq i8 %23, 0
  br i1 %.not, label %3, label %.thread

.thread:                                          ; preds = %13, %22, %lean_obj_tag.exit
  %.1 = phi i8 [ 1, %22 ], [ 0, %lean_obj_tag.exit ], [ 1, %13 ]
  ret i8 %.1
}